
test:     file format elf32-i386


Disassembly of section .init:

08048454 <_init>:
 8048454:	55                   	push   %ebp
 8048455:	89 e5                	mov    %esp,%ebp
 8048457:	53                   	push   %ebx
 8048458:	83 ec 04             	sub    $0x4,%esp
 804845b:	e8 00 00 00 00       	call   8048460 <_init+0xc>
 8048460:	5b                   	pop    %ebx
 8048461:	81 c3 94 1b 00 00    	add    $0x1b94,%ebx
 8048467:	8b 93 fc ff ff ff    	mov    -0x4(%ebx),%edx
 804846d:	85 d2                	test   %edx,%edx
 804846f:	74 05                	je     8048476 <_init+0x22>
 8048471:	e8 2e 00 00 00       	call   80484a4 <__gmon_start__@plt>
 8048476:	e8 65 01 00 00       	call   80485e0 <frame_dummy>
 804847b:	e8 d0 03 00 00       	call   8048850 <__do_global_ctors_aux>
 8048480:	58                   	pop    %eax
 8048481:	5b                   	pop    %ebx
 8048482:	c9                   	leave  
 8048483:	c3                   	ret    

Disassembly of section .plt:

08048484 <isprint@plt-0x10>:
 8048484:	ff 35 f8 9f 04 08    	pushl  0x8049ff8
 804848a:	ff 25 fc 9f 04 08    	jmp    *0x8049ffc
 8048490:	00 00                	add    %al,(%eax)
	...

08048494 <isprint@plt>:
 8048494:	ff 25 00 a0 04 08    	jmp    *0x804a000
 804849a:	68 00 00 00 00       	push   $0x0
 804849f:	e9 e0 ff ff ff       	jmp    8048484 <_init+0x30>

080484a4 <__gmon_start__@plt>:
 80484a4:	ff 25 04 a0 04 08    	jmp    *0x804a004
 80484aa:	68 08 00 00 00       	push   $0x8
 80484af:	e9 d0 ff ff ff       	jmp    8048484 <_init+0x30>

080484b4 <putchar@plt>:
 80484b4:	ff 25 08 a0 04 08    	jmp    *0x804a008
 80484ba:	68 10 00 00 00       	push   $0x10
 80484bf:	e9 c0 ff ff ff       	jmp    8048484 <_init+0x30>

080484c4 <memset@plt>:
 80484c4:	ff 25 0c a0 04 08    	jmp    *0x804a00c
 80484ca:	68 18 00 00 00       	push   $0x18
 80484cf:	e9 b0 ff ff ff       	jmp    8048484 <_init+0x30>

080484d4 <pcap_open_live@plt>:
 80484d4:	ff 25 10 a0 04 08    	jmp    *0x804a010
 80484da:	68 20 00 00 00       	push   $0x20
 80484df:	e9 a0 ff ff ff       	jmp    8048484 <_init+0x30>

080484e4 <__libc_start_main@plt>:
 80484e4:	ff 25 14 a0 04 08    	jmp    *0x804a014
 80484ea:	68 28 00 00 00       	push   $0x28
 80484ef:	e9 90 ff ff ff       	jmp    8048484 <_init+0x30>

080484f4 <printf@plt>:
 80484f4:	ff 25 18 a0 04 08    	jmp    *0x804a018
 80484fa:	68 30 00 00 00       	push   $0x30
 80484ff:	e9 80 ff ff ff       	jmp    8048484 <_init+0x30>

08048504 <__stack_chk_fail@plt>:
 8048504:	ff 25 1c a0 04 08    	jmp    *0x804a01c
 804850a:	68 38 00 00 00       	push   $0x38
 804850f:	e9 70 ff ff ff       	jmp    8048484 <_init+0x30>

08048514 <pcap_lookupdev@plt>:
 8048514:	ff 25 20 a0 04 08    	jmp    *0x804a020
 804851a:	68 40 00 00 00       	push   $0x40
 804851f:	e9 60 ff ff ff       	jmp    8048484 <_init+0x30>

08048524 <puts@plt>:
 8048524:	ff 25 24 a0 04 08    	jmp    *0x804a024
 804852a:	68 48 00 00 00       	push   $0x48
 804852f:	e9 50 ff ff ff       	jmp    8048484 <_init+0x30>

08048534 <pcap_loop@plt>:
 8048534:	ff 25 28 a0 04 08    	jmp    *0x804a028
 804853a:	68 50 00 00 00       	push   $0x50
 804853f:	e9 40 ff ff ff       	jmp    8048484 <_init+0x30>

Disassembly of section .text:

08048550 <_start>:
 8048550:	31 ed                	xor    %ebp,%ebp
 8048552:	5e                   	pop    %esi
 8048553:	89 e1                	mov    %esp,%ecx
 8048555:	83 e4 f0             	and    $0xfffffff0,%esp
 8048558:	50                   	push   %eax
 8048559:	54                   	push   %esp
 804855a:	52                   	push   %edx
 804855b:	68 e0 87 04 08       	push   $0x80487e0
 8048560:	68 f0 87 04 08       	push   $0x80487f0
 8048565:	51                   	push   %ecx
 8048566:	56                   	push   %esi
 8048567:	68 e7 86 04 08       	push   $0x80486e7
 804856c:	e8 73 ff ff ff       	call   80484e4 <__libc_start_main@plt>
 8048571:	f4                   	hlt    
 8048572:	90                   	nop
 8048573:	90                   	nop
 8048574:	90                   	nop
 8048575:	90                   	nop
 8048576:	90                   	nop
 8048577:	90                   	nop
 8048578:	90                   	nop
 8048579:	90                   	nop
 804857a:	90                   	nop
 804857b:	90                   	nop
 804857c:	90                   	nop
 804857d:	90                   	nop
 804857e:	90                   	nop
 804857f:	90                   	nop

08048580 <__do_global_dtors_aux>:
 8048580:	55                   	push   %ebp
 8048581:	89 e5                	mov    %esp,%ebp
 8048583:	53                   	push   %ebx
 8048584:	83 ec 04             	sub    $0x4,%esp
 8048587:	80 3d 34 a0 04 08 00 	cmpb   $0x0,0x804a034
 804858e:	75 3f                	jne    80485cf <__do_global_dtors_aux+0x4f>
 8048590:	a1 38 a0 04 08       	mov    0x804a038,%eax
 8048595:	bb 10 9f 04 08       	mov    $0x8049f10,%ebx
 804859a:	81 eb 0c 9f 04 08    	sub    $0x8049f0c,%ebx
 80485a0:	c1 fb 02             	sar    $0x2,%ebx
 80485a3:	83 eb 01             	sub    $0x1,%ebx
 80485a6:	39 d8                	cmp    %ebx,%eax
 80485a8:	73 1e                	jae    80485c8 <__do_global_dtors_aux+0x48>
 80485aa:	8d b6 00 00 00 00    	lea    0x0(%esi),%esi
 80485b0:	83 c0 01             	add    $0x1,%eax
 80485b3:	a3 38 a0 04 08       	mov    %eax,0x804a038
 80485b8:	ff 14 85 0c 9f 04 08 	call   *0x8049f0c(,%eax,4)
 80485bf:	a1 38 a0 04 08       	mov    0x804a038,%eax
 80485c4:	39 d8                	cmp    %ebx,%eax
 80485c6:	72 e8                	jb     80485b0 <__do_global_dtors_aux+0x30>
 80485c8:	c6 05 34 a0 04 08 01 	movb   $0x1,0x804a034
 80485cf:	83 c4 04             	add    $0x4,%esp
 80485d2:	5b                   	pop    %ebx
 80485d3:	5d                   	pop    %ebp
 80485d4:	c3                   	ret    
 80485d5:	8d 74 26 00          	lea    0x0(%esi,%eiz,1),%esi
 80485d9:	8d bc 27 00 00 00 00 	lea    0x0(%edi,%eiz,1),%edi

080485e0 <frame_dummy>:
 80485e0:	55                   	push   %ebp
 80485e1:	89 e5                	mov    %esp,%ebp
 80485e3:	83 ec 18             	sub    $0x18,%esp
 80485e6:	a1 14 9f 04 08       	mov    0x8049f14,%eax
 80485eb:	85 c0                	test   %eax,%eax
 80485ed:	74 12                	je     8048601 <frame_dummy+0x21>
 80485ef:	b8 00 00 00 00       	mov    $0x0,%eax
 80485f4:	85 c0                	test   %eax,%eax
 80485f6:	74 09                	je     8048601 <frame_dummy+0x21>
 80485f8:	c7 04 24 14 9f 04 08 	movl   $0x8049f14,(%esp)
 80485ff:	ff d0                	call   *%eax
 8048601:	c9                   	leave  
 8048602:	c3                   	ret    
 8048603:	90                   	nop

08048604 <processPacket>:
 8048604:	55                   	push   %ebp
 8048605:	89 e5                	mov    %esp,%ebp
 8048607:	83 ec 28             	sub    $0x28,%esp
 804860a:	c7 45 f4 00 00 00 00 	movl   $0x0,-0xc(%ebp)
 8048611:	c7 45 f0 00 00 00 00 	movl   $0x0,-0x10(%ebp)
 8048618:	8b 45 08             	mov    0x8(%ebp),%eax
 804861b:	89 45 f0             	mov    %eax,-0x10(%ebp)
 804861e:	8b 45 f0             	mov    -0x10(%ebp),%eax
 8048621:	8b 00                	mov    (%eax),%eax
 8048623:	8d 50 01             	lea    0x1(%eax),%edx
 8048626:	8b 45 f0             	mov    -0x10(%ebp),%eax
 8048629:	89 10                	mov    %edx,(%eax)
 804862b:	8b 45 f0             	mov    -0x10(%ebp),%eax
 804862e:	8b 10                	mov    (%eax),%edx
 8048630:	b8 a0 88 04 08       	mov    $0x80488a0,%eax
 8048635:	89 54 24 04          	mov    %edx,0x4(%esp)
 8048639:	89 04 24             	mov    %eax,(%esp)
 804863c:	e8 b3 fe ff ff       	call   80484f4 <printf@plt>
 8048641:	8b 45 0c             	mov    0xc(%ebp),%eax
 8048644:	8b 50 0c             	mov    0xc(%eax),%edx
 8048647:	b8 b2 88 04 08       	mov    $0x80488b2,%eax
 804864c:	89 54 24 04          	mov    %edx,0x4(%esp)
 8048650:	89 04 24             	mov    %eax,(%esp)
 8048653:	e8 9c fe ff ff       	call   80484f4 <printf@plt>
 8048658:	c7 04 24 cc 88 04 08 	movl   $0x80488cc,(%esp)
 804865f:	e8 c0 fe ff ff       	call   8048524 <puts@plt>
 8048664:	c7 45 f4 00 00 00 00 	movl   $0x0,-0xc(%ebp)
 804866b:	eb 6b                	jmp    80486d8 <processPacket+0xd4>
 804866d:	8b 45 f4             	mov    -0xc(%ebp),%eax
 8048670:	03 45 10             	add    0x10(%ebp),%eax
 8048673:	0f b6 00             	movzbl (%eax),%eax
 8048676:	0f b6 c0             	movzbl %al,%eax
 8048679:	89 04 24             	mov    %eax,(%esp)
 804867c:	e8 13 fe ff ff       	call   8048494 <isprint@plt>
 8048681:	85 c0                	test   %eax,%eax
 8048683:	74 16                	je     804869b <processPacket+0x97>
 8048685:	8b 45 f4             	mov    -0xc(%ebp),%eax
 8048688:	03 45 10             	add    0x10(%ebp),%eax
 804868b:	0f b6 00             	movzbl (%eax),%eax
 804868e:	0f b6 c0             	movzbl %al,%eax
 8048691:	89 04 24             	mov    %eax,(%esp)
 8048694:	e8 1b fe ff ff       	call   80484b4 <putchar@plt>
 8048699:	eb 0d                	jmp    80486a8 <processPacket+0xa4>
 804869b:	b8 d5 88 04 08       	mov    $0x80488d5,%eax
 80486a0:	89 04 24             	mov    %eax,(%esp)
 80486a3:	e8 4c fe ff ff       	call   80484f4 <printf@plt>
 80486a8:	8b 45 f4             	mov    -0xc(%ebp),%eax
 80486ab:	83 e0 0f             	and    $0xf,%eax
 80486ae:	85 c0                	test   %eax,%eax
 80486b0:	75 06                	jne    80486b8 <processPacket+0xb4>
 80486b2:	83 7d f4 00          	cmpl   $0x0,-0xc(%ebp)
 80486b6:	75 10                	jne    80486c8 <processPacket+0xc4>
 80486b8:	8b 55 f4             	mov    -0xc(%ebp),%edx
 80486bb:	8b 45 0c             	mov    0xc(%ebp),%eax
 80486be:	8b 40 0c             	mov    0xc(%eax),%eax
 80486c1:	83 e8 01             	sub    $0x1,%eax
 80486c4:	39 c2                	cmp    %eax,%edx
 80486c6:	75 0c                	jne    80486d4 <processPacket+0xd0>
 80486c8:	c7 04 24 0a 00 00 00 	movl   $0xa,(%esp)
 80486cf:	e8 e0 fd ff ff       	call   80484b4 <putchar@plt>
 80486d4:	83 45 f4 01          	addl   $0x1,-0xc(%ebp)
 80486d8:	8b 55 f4             	mov    -0xc(%ebp),%edx
 80486db:	8b 45 0c             	mov    0xc(%ebp),%eax
 80486de:	8b 40 0c             	mov    0xc(%eax),%eax
 80486e1:	39 c2                	cmp    %eax,%edx
 80486e3:	72 88                	jb     804866d <processPacket+0x69>
 80486e5:	c9                   	leave  
 80486e6:	c3                   	ret    

080486e7 <main>:
 80486e7:	55                   	push   %ebp
 80486e8:	89 e5                	mov    %esp,%ebp
 80486ea:	83 e4 f0             	and    $0xfffffff0,%esp
 80486ed:	81 ec 50 01 00 00    	sub    $0x150,%esp
 80486f3:	8b 45 0c             	mov    0xc(%ebp),%eax
 80486f6:	89 44 24 2c          	mov    %eax,0x2c(%esp)
 80486fa:	65 a1 14 00 00 00    	mov    %gs:0x14,%eax
 8048700:	89 84 24 4c 01 00 00 	mov    %eax,0x14c(%esp)
 8048707:	31 c0                	xor    %eax,%eax
 8048709:	c7 44 24 48 00 00 00 	movl   $0x0,0x48(%esp)
 8048710:	00 
 8048711:	c7 44 24 44 00 00 00 	movl   $0x0,0x44(%esp)
 8048718:	00 
 8048719:	c7 44 24 40 00 00 00 	movl   $0x0,0x40(%esp)
 8048720:	00 
 8048721:	c7 44 24 3c 00 00 00 	movl   $0x0,0x3c(%esp)
 8048728:	00 
 8048729:	c7 44 24 08 00 01 00 	movl   $0x100,0x8(%esp)
 8048730:	00 
 8048731:	c7 44 24 04 00 00 00 	movl   $0x0,0x4(%esp)
 8048738:	00 
 8048739:	8d 44 24 4c          	lea    0x4c(%esp),%eax
 804873d:	89 04 24             	mov    %eax,(%esp)
 8048740:	e8 7f fd ff ff       	call   80484c4 <memset@plt>
 8048745:	8d 44 24 4c          	lea    0x4c(%esp),%eax
 8048749:	89 04 24             	mov    %eax,(%esp)
 804874c:	e8 c3 fd ff ff       	call   8048514 <pcap_lookupdev@plt>
 8048751:	89 44 24 3c          	mov    %eax,0x3c(%esp)
 8048755:	b8 d8 88 04 08       	mov    $0x80488d8,%eax
 804875a:	8b 54 24 3c          	mov    0x3c(%esp),%edx
 804875e:	89 54 24 04          	mov    %edx,0x4(%esp)
 8048762:	89 04 24             	mov    %eax,(%esp)
 8048765:	e8 8a fd ff ff       	call   80484f4 <printf@plt>
 804876a:	8d 44 24 4c          	lea    0x4c(%esp),%eax
 804876e:	89 44 24 10          	mov    %eax,0x10(%esp)
 8048772:	c7 44 24 0c 00 02 00 	movl   $0x200,0xc(%esp)
 8048779:	00 
 804877a:	c7 44 24 08 01 00 00 	movl   $0x1,0x8(%esp)
 8048781:	00 
 8048782:	c7 44 24 04 00 08 00 	movl   $0x800,0x4(%esp)
 8048789:	00 
 804878a:	8b 44 24 3c          	mov    0x3c(%esp),%eax
 804878e:	89 04 24             	mov    %eax,(%esp)
 8048791:	e8 3e fd ff ff       	call   80484d4 <pcap_open_live@plt>
 8048796:	89 44 24 40          	mov    %eax,0x40(%esp)
 804879a:	8d 44 24 44          	lea    0x44(%esp),%eax
 804879e:	89 44 24 0c          	mov    %eax,0xc(%esp)
 80487a2:	c7 44 24 08 04 86 04 	movl   $0x8048604,0x8(%esp)
 80487a9:	08 
 80487aa:	c7 44 24 04 ff ff ff 	movl   $0xffffffff,0x4(%esp)
 80487b1:	ff 
 80487b2:	8b 44 24 40          	mov    0x40(%esp),%eax
 80487b6:	89 04 24             	mov    %eax,(%esp)
 80487b9:	e8 76 fd ff ff       	call   8048534 <pcap_loop@plt>
 80487be:	b8 00 00 00 00       	mov    $0x0,%eax
 80487c3:	8b 94 24 4c 01 00 00 	mov    0x14c(%esp),%edx
 80487ca:	65 33 15 14 00 00 00 	xor    %gs:0x14,%edx
 80487d1:	74 05                	je     80487d8 <main+0xf1>
 80487d3:	e8 2c fd ff ff       	call   8048504 <__stack_chk_fail@plt>
 80487d8:	c9                   	leave  
 80487d9:	c3                   	ret    
 80487da:	90                   	nop
 80487db:	90                   	nop
 80487dc:	90                   	nop
 80487dd:	90                   	nop
 80487de:	90                   	nop
 80487df:	90                   	nop

080487e0 <__libc_csu_fini>:
 80487e0:	55                   	push   %ebp
 80487e1:	89 e5                	mov    %esp,%ebp
 80487e3:	5d                   	pop    %ebp
 80487e4:	c3                   	ret    
 80487e5:	8d 74 26 00          	lea    0x0(%esi,%eiz,1),%esi
 80487e9:	8d bc 27 00 00 00 00 	lea    0x0(%edi,%eiz,1),%edi

080487f0 <__libc_csu_init>:
 80487f0:	55                   	push   %ebp
 80487f1:	89 e5                	mov    %esp,%ebp
 80487f3:	57                   	push   %edi
 80487f4:	56                   	push   %esi
 80487f5:	53                   	push   %ebx
 80487f6:	e8 4f 00 00 00       	call   804884a <__i686.get_pc_thunk.bx>
 80487fb:	81 c3 f9 17 00 00    	add    $0x17f9,%ebx
 8048801:	83 ec 1c             	sub    $0x1c,%esp
 8048804:	e8 4b fc ff ff       	call   8048454 <_init>
 8048809:	8d bb 10 ff ff ff    	lea    -0xf0(%ebx),%edi
 804880f:	8d 83 10 ff ff ff    	lea    -0xf0(%ebx),%eax
 8048815:	29 c7                	sub    %eax,%edi
 8048817:	c1 ff 02             	sar    $0x2,%edi
 804881a:	85 ff                	test   %edi,%edi
 804881c:	74 24                	je     8048842 <__libc_csu_init+0x52>
 804881e:	31 f6                	xor    %esi,%esi
 8048820:	8b 45 10             	mov    0x10(%ebp),%eax
 8048823:	89 44 24 08          	mov    %eax,0x8(%esp)
 8048827:	8b 45 0c             	mov    0xc(%ebp),%eax
 804882a:	89 44 24 04          	mov    %eax,0x4(%esp)
 804882e:	8b 45 08             	mov    0x8(%ebp),%eax
 8048831:	89 04 24             	mov    %eax,(%esp)
 8048834:	ff 94 b3 10 ff ff ff 	call   *-0xf0(%ebx,%esi,4)
 804883b:	83 c6 01             	add    $0x1,%esi
 804883e:	39 fe                	cmp    %edi,%esi
 8048840:	72 de                	jb     8048820 <__libc_csu_init+0x30>
 8048842:	83 c4 1c             	add    $0x1c,%esp
 8048845:	5b                   	pop    %ebx
 8048846:	5e                   	pop    %esi
 8048847:	5f                   	pop    %edi
 8048848:	5d                   	pop    %ebp
 8048849:	c3                   	ret    

0804884a <__i686.get_pc_thunk.bx>:
 804884a:	8b 1c 24             	mov    (%esp),%ebx
 804884d:	c3                   	ret    
 804884e:	90                   	nop
 804884f:	90                   	nop

08048850 <__do_global_ctors_aux>:
 8048850:	55                   	push   %ebp
 8048851:	89 e5                	mov    %esp,%ebp
 8048853:	53                   	push   %ebx
 8048854:	83 ec 04             	sub    $0x4,%esp
 8048857:	a1 04 9f 04 08       	mov    0x8049f04,%eax
 804885c:	83 f8 ff             	cmp    $0xffffffff,%eax
 804885f:	74 13                	je     8048874 <__do_global_ctors_aux+0x24>
 8048861:	bb 04 9f 04 08       	mov    $0x8049f04,%ebx
 8048866:	66 90                	xchg   %ax,%ax
 8048868:	83 eb 04             	sub    $0x4,%ebx
 804886b:	ff d0                	call   *%eax
 804886d:	8b 03                	mov    (%ebx),%eax
 804886f:	83 f8 ff             	cmp    $0xffffffff,%eax
 8048872:	75 f4                	jne    8048868 <__do_global_ctors_aux+0x18>
 8048874:	83 c4 04             	add    $0x4,%esp
 8048877:	5b                   	pop    %ebx
 8048878:	5d                   	pop    %ebp
 8048879:	c3                   	ret    
 804887a:	90                   	nop
 804887b:	90                   	nop

Disassembly of section .fini:

0804887c <_fini>:
 804887c:	55                   	push   %ebp
 804887d:	89 e5                	mov    %esp,%ebp
 804887f:	53                   	push   %ebx
 8048880:	83 ec 04             	sub    $0x4,%esp
 8048883:	e8 00 00 00 00       	call   8048888 <_fini+0xc>
 8048888:	5b                   	pop    %ebx
 8048889:	81 c3 6c 17 00 00    	add    $0x176c,%ebx
 804888f:	e8 ec fc ff ff       	call   8048580 <__do_global_dtors_aux>
 8048894:	59                   	pop    %ecx
 8048895:	5b                   	pop    %ebx
 8048896:	c9                   	leave  
 8048897:	c3                   	ret    
